; Function Attrs: mustprogress nounwind uwtable
define hidden noundef zeroext i1 @_ZN20VirtualMemoryTracker25remove_uncommitted_regionEPhm(ptr noundef %0, i64 noundef %1) local_unnamed_addr #0 align 2 {
  %3 = alloca %class.ReservedMemoryRegion, align 8
  store ptr %0, ptr %3, align 8
  %4 = getelementptr inbounds i8, ptr %3, i64 8
  store i64 %1, ptr %4, align 8
  %5 = getelementptr inbounds i8, ptr %3, i64 16
  %6 = getelementptr inbounds i8, ptr %3, i64 24
  call void @llvm.memset.p0.i64(ptr noundef nonnull align 8 dereferenceable(16) %6, i8 0, i64 16, i1 false)
  store ptr getelementptr inbounds inrange(-16, 120) (i8, ptr @_ZTV16SortedLinkedListI21CommittedMemoryRegionXadL_Z24compare_committed_regionRKS0_S2_EELN6AnyObj15allocation_typeE2EL8MEMFLAGS12ELN17AllocFailStrategy13AllocFailEnumE1EE, i64 16), ptr %5, align 8
  %7 = getelementptr inbounds i8, ptr %3, i64 40
  call void @llvm.memcpy.p0.p0.i64(ptr noundef nonnull align 8 dereferenceable(32) %7, ptr noundef nonnull align 8 dereferenceable(32) @_ZN15NativeCallStack12_empty_stackE, i64 32, i1 false)
  %8 = getelementptr inbounds i8, ptr %3, i64 72
  store i8 27, ptr %8, align 8
  %9 = load ptr, ptr @_ZN20VirtualMemoryTracker17_reserved_regionsE, align 8
  %10 = load ptr, ptr %9, align 8
  %11 = getelementptr inbounds i8, ptr %10, i64 56
  %12 = load ptr, ptr %11, align 8
  %13 = call noundef ptr %12(ptr noundef nonnull align 8 dereferenceable(24) %9, ptr noundef nonnull align 8 dereferenceable(73) %3) #14
  %14 = getelementptr inbounds i8, ptr %13, i64 72
  %15 = load i8, ptr %14, align 8
  %16 = zext i8 %15 to i64
  %17 = getelementptr inbounds [28 x %"struct.NMTUtil::S"], ptr @_ZN7NMTUtil8_stringsE, i64 0, i64 %16, i32 1
  %18 = load ptr, ptr %17, align 8
  %19 = call noundef zeroext i1 @_ZN20ReservedMemoryRegion25remove_uncommitted_regionEPhm(ptr noundef nonnull align 8 dereferenceable(73) %13, ptr noundef %0, i64 noundef %1)
  %20 = load volatile ptr, ptr getelementptr inbounds (i8, ptr @_ZN16LogTagSetMappingILN6LogTag4typeE95ELS1_0ELS1_0ELS1_0ELS1_0ELS1_0EE7_tagsetE, i64 56), align 8
  %.not = icmp eq ptr %20, null
  br i1 %.not, label %24, label %21

21:                                               ; preds = %2
  %22 = ptrtoint ptr %0 to i64
  %23 = select i1 %19, ptr @.str.17, ptr @.str.15
  call void (ptr, ...) @_ZN7LogImplILN6LogTag4typeE95ELS1_0ELS1_0ELS1_0ELS1_0ELS1_0EE5writeILN8LogLevel4typeE2EEEvPKcz(ptr noundef nonnull @.str.16, ptr noundef %18, i64 noundef %22, i64 noundef %1, ptr noundef nonnull %23)
  br label %24

24:                                               ; preds = %2, %21
  store ptr getelementptr inbounds inrange(-16, 120) (i8, ptr @_ZTV14LinkedListImplI21CommittedMemoryRegionLN6AnyObj15allocation_typeE2EL8MEMFLAGS12ELN17AllocFailStrategy13AllocFailEnumE1EE, i64 16), ptr %5, align 8
  %25 = load ptr, ptr %6, align 8
  store ptr null, ptr %6, align 8
  %.not5.i.i.i.i = icmp eq ptr %25, null
  br i1 %.not5.i.i.i.i, label %_ZN20ReservedMemoryRegionD2Ev.exit, label %_ZN14LinkedListImplI21CommittedMemoryRegionLN6AnyObj15allocation_typeE2EL8MEMFLAGS12ELN17AllocFailStrategy13AllocFailEnumE1EE11delete_nodeEP14LinkedListNodeIS0_E.exit.i.i.i.i

_ZN14LinkedListImplI21CommittedMemoryRegionLN6AnyObj15allocation_typeE2EL8MEMFLAGS12ELN17AllocFailStrategy13AllocFailEnumE1EE11delete_nodeEP14LinkedListNodeIS0_E.exit.i.i.i.i: ; preds = %24, %_ZN14LinkedListImplI21CommittedMemoryRegionLN6AnyObj15allocation_typeE2EL8MEMFLAGS12ELN17AllocFailStrategy13AllocFailEnumE1EE11delete_nodeEP14LinkedListNodeIS0_E.exit.i.i.i.i
  %.06.i.i.i.i = phi ptr [ %27, %_ZN14LinkedListImplI21CommittedMemoryRegionLN6AnyObj15allocation_typeE2EL8MEMFLAGS12ELN17AllocFailStrategy13AllocFailEnumE1EE11delete_nodeEP14LinkedListNodeIS0_E.exit.i.i.i.i ], [ %25, %24 ]
  %26 = getelementptr inbounds i8, ptr %.06.i.i.i.i, i64 48
  %27 = load ptr, ptr %26, align 8
  call void @_ZN6AnyObjdlEPv(ptr noundef nonnull %.06.i.i.i.i) #14
  %.not.i.i.i.i = icmp eq ptr %27, null
  br i1 %.not.i.i.i.i, label %_ZN20ReservedMemoryRegionD2Ev.exit, label %_ZN14LinkedListImplI21CommittedMemoryRegionLN6AnyObj15allocation_typeE2EL8MEMFLAGS12ELN17AllocFailStrategy13AllocFailEnumE1EE11delete_nodeEP14LinkedListNodeIS0_E.exit.i.i.i.i, !llvm.loop !16

_ZN20ReservedMemoryRegionD2Ev.exit:               ; preds = %_ZN14LinkedListImplI21CommittedMemoryRegionLN6AnyObj15allocation_typeE2EL8MEMFLAGS12ELN17AllocFailStrategy13AllocFailEnumE1EE11delete_nodeEP14LinkedListNodeIS0_E.exit.i.i.i.i, %24
  ret i1 %19
}